; Function Attrs: mustprogress nounwind uwtable
define internal fastcc void @_ZN4absl10FixedArrayIN12_GLOBAL__N_118ConstructionTesterELm0ESaIS2_EED2Ev(i64 %.0.val, ptr %.8.val) unnamed_addr #12 align 2 personality ptr @__gxx_personality_v0 {
  %1 = getelementptr inbounds nuw %"class.(anonymous namespace)::ConstructionTester", ptr %.8.val, i64 %.0.val
  %.not1 = icmp eq i64 %.0.val, 0
  br i1 %.not1, label %_ZN4absl10FixedArrayIN12_GLOBAL__N_118ConstructionTesterELm0ESaIS2_EE7StorageD2Ev.exit, label %.lr.ph.preheader

.lr.ph.preheader:                                 ; preds = %0
  %_ZN12_GLOBAL__N_118ConstructionTester12destructionsE.promoted = load i32, ptr @_ZN12_GLOBAL__N_118ConstructionTester12destructionsE, align 4
  br label %.lr.ph

2:                                                ; preds = %.lr.ph
  store i32 %5, ptr @_ZN12_GLOBAL__N_118ConstructionTester12destructionsE, align 4, !tbaa !28
  %3 = shl i64 %.0.val, 4
  tail call void @_ZdlPvm(ptr noundef %.8.val, i64 noundef %3) #29
  br label %_ZN4absl10FixedArrayIN12_GLOBAL__N_118ConstructionTesterELm0ESaIS2_EE7StorageD2Ev.exit

_ZN4absl10FixedArrayIN12_GLOBAL__N_118ConstructionTesterELm0ESaIS2_EE7StorageD2Ev.exit: ; preds = %0, %2
  ret void

.lr.ph:                                           ; preds = %.lr.ph.preheader, %.lr.ph
  %.02 = phi ptr [ %6, %.lr.ph ], [ %.8.val, %.lr.ph.preheader ]
  %4 = phi i32 [ %5, %.lr.ph ], [ %_ZN12_GLOBAL__N_118ConstructionTester12destructionsE.promoted, %.lr.ph.preheader ]
  store ptr null, ptr %.02, align 8, !tbaa !834
  %5 = add nsw i32 %4, 1
  %6 = getelementptr inbounds nuw i8, ptr %.02, i64 16
  %.not = icmp eq ptr %6, %1
  br i1 %.not, label %2, label %.lr.ph, !llvm.loop !843
}